(lp0
cnumpy.core.multiarray
scalar
p1
(cnumpy
dtype
p2
(S'f8'
p3
I0
I1
tp4
Rp5
(I3
S'<'
p6
NNNI-1
I-1
I0
tp7
bS'\x00\x00\x00\x00\x00\x00\xf0\xbf'
p8
tp9
Rp10
acdatetime
date
p11
(S'\x07\xe5\x04\x18'
p12
tp13
Rp14
a.